; Function Attrs: mustprogress noreturn uwtable
define internal fastcc void @_ZN6Assimp3FBX12_GLOBAL__N_113TokenizeErrorERKNSt7__cxx1112basic_stringIcSt11char_traitsIcESaIcEEEm(ptr noundef nonnull align 8 dereferenceable(32) %message, i64 noundef %offset) unnamed_addr #3 personality ptr @__gxx_personality_v0 {
entry:
  %agg.tmp.i = alloca %"class.Assimp::Formatter::basic_formatter", align 8
  %ref.tmp = alloca %"class.std::__cxx11::basic_string", align 8
  %exception = tail call ptr @__cxa_allocate_exception(i64 16) #15
  invoke void @_ZN6Assimp3FBX4Util13GetOffsetTextB5cxx11Em(ptr nonnull sret(%"class.std::__cxx11::basic_string") align 8 %ref.tmp, i64 noundef %offset)
          to label %invoke.cont unwind label %ehcleanup.thread

invoke.cont:                                      ; preds = %entry
  call void @llvm.lifetime.start.p0(i64 376, ptr nonnull %agg.tmp.i)
  invoke void @_ZNSt7__cxx1119basic_ostringstreamIcSt11char_traitsIcESaIcEEC1Ev(ptr noundef nonnull align 8 dereferenceable(112) %agg.tmp.i)
          to label %.noexc unwind label %ehcleanup.thread9

ehcleanup.thread9:                                ; preds = %invoke.cont
  %0 = landingpad { ptr, i32 }
          cleanup
  call void @_ZNSt7__cxx1112basic_stringIcSt11char_traitsIcESaIcEED1Ev(ptr noundef nonnull align 8 dereferenceable(32) %ref.tmp) #15
  br label %cleanup.action

.noexc:                                           ; preds = %invoke.cont
  invoke void @_ZN15DeadlyErrorBaseC2IJNSt7__cxx1112basic_stringIcSt11char_traitsIcESaIcEEERKS6_ERA13_KcEEN6Assimp9Formatter15basic_formatterIcS4_S5_EEOT0_DpOT_(ptr noundef nonnull align 8 dereferenceable(16) %exception, ptr noundef nonnull %agg.tmp.i, ptr noundef nonnull align 1 dereferenceable(13) @.str.8, ptr noundef nonnull align 8 dereferenceable(32) %ref.tmp, ptr noundef nonnull align 8 dereferenceable(32) %message)
          to label %invoke.cont2 unwind label %ehcleanup.thread6

ehcleanup.thread6:                                ; preds = %.noexc
  %1 = landingpad { ptr, i32 }
          cleanup
  call void @_ZNSt7__cxx1119basic_ostringstreamIcSt11char_traitsIcESaIcEED1Ev(ptr noundef nonnull align 8 dereferenceable(112) %agg.tmp.i) #15
  call void @_ZNSt7__cxx1112basic_stringIcSt11char_traitsIcESaIcEED1Ev(ptr noundef nonnull align 8 dereferenceable(32) %ref.tmp) #15
  br label %cleanup.action

invoke.cont2:                                     ; preds = %.noexc
  call void @_ZNSt7__cxx1119basic_ostringstreamIcSt11char_traitsIcESaIcEED1Ev(ptr noundef nonnull align 8 dereferenceable(112) %agg.tmp.i) #15
  store ptr getelementptr inbounds ({ [5 x ptr] }, ptr @_ZTV17DeadlyImportError, i64 0, i32 0, i64 2), ptr %exception, align 8
  call void @llvm.lifetime.end.p0(i64 376, ptr nonnull %agg.tmp.i)
  invoke void @__cxa_throw(ptr nonnull %exception, ptr nonnull @_ZTI17DeadlyImportError, ptr nonnull @_ZN17DeadlyImportErrorD2Ev) #16
          to label %unreachable unwind label %ehcleanup

ehcleanup.thread:                                 ; preds = %entry
  %2 = landingpad { ptr, i32 }
          cleanup
  br label %cleanup.action

ehcleanup:                                        ; preds = %invoke.cont2
  %3 = landingpad { ptr, i32 }
          cleanup
  call void @_ZNSt7__cxx1112basic_stringIcSt11char_traitsIcESaIcEED1Ev(ptr noundef nonnull align 8 dereferenceable(32) %ref.tmp) #15
  br label %eh.resume

cleanup.action:                                   ; preds = %ehcleanup.thread9, %ehcleanup.thread6, %ehcleanup.thread
  %.pn5 = phi { ptr, i32 } [ %2, %ehcleanup.thread ], [ %1, %ehcleanup.thread6 ], [ %0, %ehcleanup.thread9 ]
  call void @__cxa_free_exception(ptr %exception) #15
  br label %eh.resume

eh.resume:                                        ; preds = %ehcleanup, %cleanup.action
  %.pn4 = phi { ptr, i32 } [ %3, %ehcleanup ], [ %.pn5, %cleanup.action ]
  resume { ptr, i32 } %.pn4

unreachable:                                      ; preds = %invoke.cont2
  unreachable
}